target datalayout = "e-m:e-p270:32:32-p271:32:32-p272:64:64-i64:64-i128:128-f80:128-n8:16:32:64-S128"
target triple = "x86_64-pc-linux-gnu"

%struct.pg_tm = type { i32, i32, i32, i32, i32, i32, i32, i32, i32, i64, ptr }
%struct.DateTimeErrorExtra = type { ptr, ptr }
%struct.FunctionCallInfoBaseData = type { ptr, ptr, ptr, i32, i8, i16, [0 x %struct.NullableDatum] }
%struct.NullableDatum = type { i64, i8 }

@.str.3 = private unnamed_addr constant [7 x i8] c"date.c\00", align 1
@.str.5 = private unnamed_addr constant [5 x i8] c"date\00", align 1
@.str.6 = private unnamed_addr constant [24 x i8] c"date out of range: \22%s\22\00", align 1
@__func__.date_in = private unnamed_addr constant [8 x i8] c"date_in\00", align 1

; Function Attrs: inlinehint nounwind uwtable
define internal i64 @Int32GetDatum(i32 noundef %0) #4 {
  %2 = alloca i32, align 4
  store i32 %0, ptr %2, align 4
  %3 = load i32, ptr %2, align 4
  %4 = sext i32 %3 to i64
  ret i64 %4
}

; Function Attrs: inlinehint nounwind uwtable
define internal ptr @DatumGetPointer(i64 noundef %0) #4 {
  %2 = alloca i64, align 8
  store i64 %0, ptr %2, align 8
  %3 = load i64, ptr %2, align 8
  %4 = inttoptr i64 %3 to ptr
  ret ptr %4
}

; Function Attrs: inlinehint nounwind uwtable
define internal i64 @DateADTGetDatum(i32 noundef %0) #4 {
  %2 = alloca i32, align 4
  store i32 %0, ptr %2, align 4
  %3 = load i32, ptr %2, align 4
  %4 = call i64 @Int32GetDatum(i32 noundef %3)
  ret i64 %4
}

; Function Attrs: inlinehint nounwind uwtable
define internal ptr @DatumGetCString(i64 noundef %0) #4 {
  %2 = alloca i64, align 8
  store i64 %0, ptr %2, align 8
  %3 = load i64, ptr %2, align 8
  %4 = call ptr @DatumGetPointer(i64 noundef %3)
  ret ptr %4
}

; Function Attrs: nounwind uwtable
define dso_local i64 @date_in(ptr noundef %0) #0 {
  %2 = alloca i64, align 8
  %3 = alloca ptr, align 8
  %4 = alloca ptr, align 8
  %5 = alloca ptr, align 8
  %6 = alloca i32, align 4
  %7 = alloca i32, align 4
  %8 = alloca %struct.pg_tm, align 8
  %9 = alloca ptr, align 8
  %10 = alloca i32, align 4
  %11 = alloca i32, align 4
  %12 = alloca i32, align 4
  %13 = alloca i32, align 4
  %14 = alloca [25 x ptr], align 16
  %15 = alloca [25 x i32], align 16
  %16 = alloca [129 x i8], align 16
  %17 = alloca %struct.DateTimeErrorExtra, align 8
  %18 = alloca i32, align 4
  %19 = alloca ptr, align 8
  %20 = alloca ptr, align 8
  store ptr %0, ptr %3, align 8
  call void @llvm.lifetime.start.p0(i64 8, ptr %4) #9
  %21 = load ptr, ptr %3, align 8
  %22 = getelementptr inbounds nuw %struct.FunctionCallInfoBaseData, ptr %21, i32 0, i32 6
  %23 = getelementptr inbounds [0 x %struct.NullableDatum], ptr %22, i64 0, i64 0
  %24 = getelementptr inbounds nuw %struct.NullableDatum, ptr %23, i32 0, i32 0
  %25 = load i64, ptr %24, align 8
  %26 = call ptr @DatumGetCString(i64 noundef %25)
  store ptr %26, ptr %4, align 8
  call void @llvm.lifetime.start.p0(i64 8, ptr %5) #9
  %27 = load ptr, ptr %3, align 8
  %28 = getelementptr inbounds nuw %struct.FunctionCallInfoBaseData, ptr %27, i32 0, i32 1
  %29 = load ptr, ptr %28, align 8
  store ptr %29, ptr %5, align 8
  call void @llvm.lifetime.start.p0(i64 4, ptr %6) #9
  call void @llvm.lifetime.start.p0(i64 4, ptr %7) #9
  call void @llvm.lifetime.start.p0(i64 56, ptr %8) #9
  call void @llvm.lifetime.start.p0(i64 8, ptr %9) #9
  store ptr %8, ptr %9, align 8
  call void @llvm.lifetime.start.p0(i64 4, ptr %10) #9
  call void @llvm.lifetime.start.p0(i64 4, ptr %11) #9
  call void @llvm.lifetime.start.p0(i64 4, ptr %12) #9
  call void @llvm.lifetime.start.p0(i64 4, ptr %13) #9
  call void @llvm.lifetime.start.p0(i64 200, ptr %14) #9
  call void @llvm.lifetime.start.p0(i64 100, ptr %15) #9
  call void @llvm.lifetime.start.p0(i64 129, ptr %16) #9
  call void @llvm.lifetime.start.p0(i64 16, ptr %17) #9
  %30 = load ptr, ptr %4, align 8
  %31 = getelementptr inbounds [129 x i8], ptr %16, i64 0, i64 0
  %32 = getelementptr inbounds [25 x ptr], ptr %14, i64 0, i64 0
  %33 = getelementptr inbounds [25 x i32], ptr %15, i64 0, i64 0
  %34 = call i32 @ParseDateTime(ptr noundef %30, ptr noundef %31, i64 noundef 129, ptr noundef %32, ptr noundef %33, i32 noundef 25, ptr noundef %12)
  store i32 %34, ptr %13, align 4
  %35 = load i32, ptr %13, align 4
  %36 = icmp eq i32 %35, 0
  br i1 %36, label %37, label %43

37:                                               ; preds = %1
  %38 = getelementptr inbounds [25 x ptr], ptr %14, i64 0, i64 0
  %39 = getelementptr inbounds [25 x i32], ptr %15, i64 0, i64 0
  %40 = load i32, ptr %12, align 4
  %41 = load ptr, ptr %9, align 8
  %42 = call i32 @DecodeDateTime(ptr noundef %38, ptr noundef %39, i32 noundef %40, ptr noundef %11, ptr noundef %41, ptr noundef %7, ptr noundef %10, ptr noundef %17)
  store i32 %42, ptr %13, align 4
  br label %43

43:                                               ; preds = %37, %1
  %44 = load i32, ptr %13, align 4
  %45 = icmp ne i32 %44, 0
  br i1 %45, label %46, label %55

46:                                               ; preds = %43
  %47 = load i32, ptr %13, align 4
  %48 = load ptr, ptr %4, align 8
  %49 = load ptr, ptr %5, align 8
  call void @DateTimeParseError(i32 noundef %47, ptr noundef %17, ptr noundef %48, ptr noundef @.str.5, ptr noundef %49)
  br label %50

50:                                               ; preds = %46
  %51 = load ptr, ptr %3, align 8
  %52 = getelementptr inbounds nuw %struct.FunctionCallInfoBaseData, ptr %51, i32 0, i32 4
  store i8 1, ptr %52, align 4
  store i64 0, ptr %2, align 8
  store i32 1, ptr %18, align 4
  br label %155

53:                                               ; No predecessors!
  br label %54

54:                                               ; preds = %53
  br label %55

55:                                               ; preds = %54, %43
  %56 = load i32, ptr %11, align 4
  switch i32 %56, label %65 [
    i32 2, label %73
    i32 11, label %57
    i32 10, label %59
    i32 9, label %62
  ]

57:                                               ; preds = %55
  %58 = load ptr, ptr %9, align 8
  call void @GetEpochTime(ptr noundef %58)
  br label %73

59:                                               ; preds = %55
  store i32 2147483647, ptr %6, align 4
  %60 = load i32, ptr %6, align 4
  %61 = call i64 @DateADTGetDatum(i32 noundef %60)
  store i64 %61, ptr %2, align 8
  store i32 1, ptr %18, align 4
  br label %155

62:                                               ; preds = %55
  store i32 -2147483648, ptr %6, align 4
  %63 = load i32, ptr %6, align 4
  %64 = call i64 @DateADTGetDatum(i32 noundef %63)
  store i64 %64, ptr %2, align 8
  store i32 1, ptr %18, align 4
  br label %155

65:                                               ; preds = %55
  %66 = load ptr, ptr %4, align 8
  %67 = load ptr, ptr %5, align 8
  call void @DateTimeParseError(i32 noundef -1, ptr noundef %17, ptr noundef %66, ptr noundef @.str.5, ptr noundef %67)
  br label %68

68:                                               ; preds = %65
  %69 = load ptr, ptr %3, align 8
  %70 = getelementptr inbounds nuw %struct.FunctionCallInfoBaseData, ptr %69, i32 0, i32 4
  store i8 1, ptr %70, align 4
  store i64 0, ptr %2, align 8
  store i32 1, ptr %18, align 4
  br label %155

71:                                               ; No predecessors!
  br label %72

72:                                               ; preds = %71
  br label %73

73:                                               ; preds = %72, %57, %55
  %74 = load ptr, ptr %9, align 8
  %75 = getelementptr inbounds nuw %struct.pg_tm, ptr %74, i32 0, i32 5
  %76 = load i32, ptr %75, align 4
  %77 = icmp sgt i32 %76, -4713
  br i1 %77, label %88, label %78

78:                                               ; preds = %73
  %79 = load ptr, ptr %9, align 8
  %80 = getelementptr inbounds nuw %struct.pg_tm, ptr %79, i32 0, i32 5
  %81 = load i32, ptr %80, align 4
  %82 = icmp eq i32 %81, -4713
  br i1 %82, label %83, label %103

83:                                               ; preds = %78
  %84 = load ptr, ptr %9, align 8
  %85 = getelementptr inbounds nuw %struct.pg_tm, ptr %84, i32 0, i32 4
  %86 = load i32, ptr %85, align 8
  %87 = icmp sge i32 %86, 11
  br i1 %87, label %88, label %103

88:                                               ; preds = %83, %73
  %89 = load ptr, ptr %9, align 8
  %90 = getelementptr inbounds nuw %struct.pg_tm, ptr %89, i32 0, i32 5
  %91 = load i32, ptr %90, align 4
  %92 = icmp slt i32 %91, 5874898
  br i1 %92, label %119, label %93

93:                                               ; preds = %88
  %94 = load ptr, ptr %9, align 8
  %95 = getelementptr inbounds nuw %struct.pg_tm, ptr %94, i32 0, i32 5
  %96 = load i32, ptr %95, align 4
  %97 = icmp eq i32 %96, 5874898
  br i1 %97, label %98, label %103

98:                                               ; preds = %93
  %99 = load ptr, ptr %9, align 8
  %100 = getelementptr inbounds nuw %struct.pg_tm, ptr %99, i32 0, i32 4
  %101 = load i32, ptr %100, align 8
  %102 = icmp slt i32 %101, 6
  br i1 %102, label %119, label %103

103:                                              ; preds = %98, %93, %83, %78
  br label %104

104:                                              ; preds = %103
  br label %105

105:                                              ; preds = %104
  call void @llvm.lifetime.start.p0(i64 8, ptr %19) #9
  %106 = load ptr, ptr %5, align 8
  store ptr %106, ptr %19, align 8
  %107 = load ptr, ptr %19, align 8
  %108 = call zeroext i1 @errsave_start(ptr noundef %107, ptr noundef null)
  br i1 %108, label %109, label %114

109:                                              ; preds = %105
  %110 = call i32 @errcode(i32 noundef 134217858)
  %111 = load ptr, ptr %4, align 8
  %112 = call i32 (ptr, ...) @errmsg(ptr noundef @.str.6, ptr noundef %111)
  %113 = load ptr, ptr %19, align 8
  call void @errsave_finish(ptr noundef %113, ptr noundef @.str.3, i32 noundef 167, ptr noundef @__func__.date_in)
  br label %114

114:                                              ; preds = %109, %105
  call void @llvm.lifetime.end.p0(i64 8, ptr %19) #9
  br label %115

115:                                              ; preds = %114
  br label %116

116:                                              ; preds = %115
  store i64 0, ptr %2, align 8
  store i32 1, ptr %18, align 4
  br label %155

117:                                              ; No predecessors!
  br label %118

118:                                              ; preds = %117
  br label %119

119:                                              ; preds = %118, %98, %88
  %120 = load ptr, ptr %9, align 8
  %121 = getelementptr inbounds nuw %struct.pg_tm, ptr %120, i32 0, i32 5
  %122 = load i32, ptr %121, align 4
  %123 = load ptr, ptr %9, align 8
  %124 = getelementptr inbounds nuw %struct.pg_tm, ptr %123, i32 0, i32 4
  %125 = load i32, ptr %124, align 8
  %126 = load ptr, ptr %9, align 8
  %127 = getelementptr inbounds nuw %struct.pg_tm, ptr %126, i32 0, i32 3
  %128 = load i32, ptr %127, align 4
  %129 = call i32 @date2j(i32 noundef %122, i32 noundef %125, i32 noundef %128)
  %130 = sub i32 %129, 2451545
  store i32 %130, ptr %6, align 4
  %131 = load i32, ptr %6, align 4
  %132 = icmp sle i32 -2451545, %131
  br i1 %132, label %133, label %136

133:                                              ; preds = %119
  %134 = load i32, ptr %6, align 4
  %135 = icmp slt i32 %134, 2145031949
  br i1 %135, label %152, label %136

136:                                              ; preds = %133, %119
  br label %137

137:                                              ; preds = %136
  br label %138

138:                                              ; preds = %137
  call void @llvm.lifetime.start.p0(i64 8, ptr %20) #9
  %139 = load ptr, ptr %5, align 8
  store ptr %139, ptr %20, align 8
  %140 = load ptr, ptr %20, align 8
  %141 = call zeroext i1 @errsave_start(ptr noundef %140, ptr noundef null)
  br i1 %141, label %142, label %147

142:                                              ; preds = %138
  %143 = call i32 @errcode(i32 noundef 134217858)
  %144 = load ptr, ptr %4, align 8
  %145 = call i32 (ptr, ...) @errmsg(ptr noundef @.str.6, ptr noundef %144)
  %146 = load ptr, ptr %20, align 8
  call void @errsave_finish(ptr noundef %146, ptr noundef @.str.3, i32 noundef 175, ptr noundef @__func__.date_in)
  br label %147

147:                                              ; preds = %142, %138
  call void @llvm.lifetime.end.p0(i64 8, ptr %20) #9
  br label %148

148:                                              ; preds = %147
  br label %149

149:                                              ; preds = %148
  store i64 0, ptr %2, align 8
  store i32 1, ptr %18, align 4
  br label %155

150:                                              ; No predecessors!
  br label %151

151:                                              ; preds = %150
  br label %152

152:                                              ; preds = %151, %133
  %153 = load i32, ptr %6, align 4
  %154 = call i64 @DateADTGetDatum(i32 noundef %153)
  store i64 %154, ptr %2, align 8
  store i32 1, ptr %18, align 4
  br label %155

155:                                              ; preds = %152, %149, %116, %68, %62, %59, %50
  call void @llvm.lifetime.end.p0(i64 16, ptr %17) #9
  call void @llvm.lifetime.end.p0(i64 129, ptr %16) #9
  call void @llvm.lifetime.end.p0(i64 100, ptr %15) #9
  call void @llvm.lifetime.end.p0(i64 200, ptr %14) #9
  call void @llvm.lifetime.end.p0(i64 4, ptr %13) #9
  call void @llvm.lifetime.end.p0(i64 4, ptr %12) #9
  call void @llvm.lifetime.end.p0(i64 4, ptr %11) #9
  call void @llvm.lifetime.end.p0(i64 4, ptr %10) #9
  call void @llvm.lifetime.end.p0(i64 8, ptr %9) #9
  call void @llvm.lifetime.end.p0(i64 56, ptr %8) #9
  call void @llvm.lifetime.end.p0(i64 4, ptr %7) #9
  call void @llvm.lifetime.end.p0(i64 4, ptr %6) #9
  call void @llvm.lifetime.end.p0(i64 8, ptr %5) #9
  call void @llvm.lifetime.end.p0(i64 8, ptr %4) #9
  %156 = load i64, ptr %2, align 8
  ret i64 %156
}