; Function Attrs: nounwind uwtable
define dso_local range(i64 -2147483648, 2147483648) i64 @date_in(ptr noundef captures(none) %0) local_unnamed_addr #0 {
  %2 = alloca i32, align 4
  %3 = alloca %struct.pg_tm, align 8
  %4 = alloca i32, align 4
  %5 = alloca i32, align 4
  %6 = alloca i32, align 4
  %7 = alloca [25 x ptr], align 16
  %8 = alloca [25 x i32], align 16
  %9 = alloca [129 x i8], align 16
  %10 = alloca %struct.DateTimeErrorExtra, align 8
  %11 = getelementptr inbounds nuw i8, ptr %0, i64 32
  %12 = load i64, ptr %11, align 8
  %13 = inttoptr i64 %12 to ptr
  %14 = getelementptr inbounds nuw i8, ptr %0, i64 8
  %15 = load ptr, ptr %14, align 8
  call void @llvm.lifetime.start.p0(i64 4, ptr nonnull %2) #16
  call void @llvm.lifetime.start.p0(i64 56, ptr nonnull %3) #16
  call void @llvm.lifetime.start.p0(i64 4, ptr nonnull %4) #16
  call void @llvm.lifetime.start.p0(i64 4, ptr nonnull %5) #16
  call void @llvm.lifetime.start.p0(i64 4, ptr nonnull %6) #16
  call void @llvm.lifetime.start.p0(i64 200, ptr nonnull %7) #16
  call void @llvm.lifetime.start.p0(i64 100, ptr nonnull %8) #16
  call void @llvm.lifetime.start.p0(i64 129, ptr nonnull %9) #16
  call void @llvm.lifetime.start.p0(i64 16, ptr nonnull %10) #16
  %16 = call i32 @ParseDateTime(ptr noundef %13, ptr noundef nonnull %9, i64 noundef 129, ptr noundef nonnull %7, ptr noundef nonnull %8, i32 noundef 25, ptr noundef nonnull %6) #16
  %17 = icmp eq i32 %16, 0
  br i1 %17, label %18, label %.thread

18:                                               ; preds = %1
  %19 = load i32, ptr %6, align 4
  %20 = call i32 @DecodeDateTime(ptr noundef nonnull %7, ptr noundef nonnull %8, i32 noundef %19, ptr noundef nonnull %5, ptr noundef nonnull %3, ptr noundef nonnull %2, ptr noundef nonnull %4, ptr noundef nonnull %10) #16
  %.not = icmp eq i32 %20, 0
  br i1 %.not, label %22, label %.thread

.thread:                                          ; preds = %1, %18
  %.03750 = phi i32 [ %20, %18 ], [ %16, %1 ]
  call void @DateTimeParseError(i32 noundef %.03750, ptr noundef nonnull %10, ptr noundef %13, ptr noundef nonnull @.str.5, ptr noundef %15) #16
  %21 = getelementptr inbounds nuw i8, ptr %0, i64 28
  store i8 1, ptr %21, align 4
  br label %61

22:                                               ; preds = %18
  %23 = load i32, ptr %5, align 4
  switch i32 %23, label %26 [
    i32 2, label %28
    i32 11, label %24
    i32 10, label %61
    i32 9, label %25
  ]

24:                                               ; preds = %22
  call void @GetEpochTime(ptr noundef nonnull %3) #16
  br label %28

25:                                               ; preds = %22
  br label %61

26:                                               ; preds = %22
  call void @DateTimeParseError(i32 noundef -1, ptr noundef nonnull %10, ptr noundef %13, ptr noundef nonnull @.str.5, ptr noundef %15) #16
  %27 = getelementptr inbounds nuw i8, ptr %0, i64 28
  store i8 1, ptr %27, align 4
  br label %61

28:                                               ; preds = %24, %22
  %29 = getelementptr inbounds nuw i8, ptr %3, i64 20
  %30 = load i32, ptr %29, align 4
  %31 = icmp sgt i32 %30, -4713
  br i1 %31, label %37, label %32

32:                                               ; preds = %28
  %33 = icmp eq i32 %30, -4713
  %34 = getelementptr inbounds nuw i8, ptr %3, i64 16
  %35 = load i32, ptr %34, align 8
  %36 = icmp sgt i32 %35, 10
  %or.cond44 = select i1 %33, i1 %36, i1 false
  br i1 %or.cond44, label %.thread51, label %44

37:                                               ; preds = %28
  %38 = icmp slt i32 %30, 5874898
  br i1 %38, label %..thread51_crit_edge, label %39

..thread51_crit_edge:                             ; preds = %37
  %.phi.trans.insert = getelementptr inbounds nuw i8, ptr %3, i64 16
  %.pre = load i32, ptr %.phi.trans.insert, align 8
  br label %.thread51

39:                                               ; preds = %37
  %40 = icmp eq i32 %30, 5874898
  %41 = getelementptr inbounds nuw i8, ptr %3, i64 16
  %42 = load i32, ptr %41, align 8
  %43 = icmp slt i32 %42, 6
  %or.cond47 = select i1 %40, i1 %43, i1 false
  br i1 %or.cond47, label %.thread51, label %44

44:                                               ; preds = %39, %32
  %45 = call zeroext i1 @errsave_start(ptr noundef %15, ptr noundef null) #16
  br i1 %45, label %46, label %61

46:                                               ; preds = %44
  %47 = call i32 @errcode(i32 noundef 134217858) #16
  %48 = call i32 (ptr, ...) @errmsg(ptr noundef nonnull @.str.6, ptr noundef %13) #16
  call void @errsave_finish(ptr noundef %15, ptr noundef nonnull @.str.3, i32 noundef 167, ptr noundef nonnull @__func__.date_in) #16
  br label %61

.thread51:                                        ; preds = %..thread51_crit_edge, %32, %39
  %49 = phi i32 [ %.pre, %..thread51_crit_edge ], [ %35, %32 ], [ %42, %39 ]
  %50 = getelementptr inbounds nuw i8, ptr %3, i64 12
  %51 = load i32, ptr %50, align 4
  %52 = call i32 @date2j(i32 noundef %30, i32 noundef %49, i32 noundef %51) #16
  %or.cond = icmp ult i32 %52, 2147483494
  br i1 %or.cond, label %58, label %53

53:                                               ; preds = %.thread51
  %54 = call zeroext i1 @errsave_start(ptr noundef %15, ptr noundef null) #16
  br i1 %54, label %55, label %61

55:                                               ; preds = %53
  %56 = call i32 @errcode(i32 noundef 134217858) #16
  %57 = call i32 (ptr, ...) @errmsg(ptr noundef nonnull @.str.6, ptr noundef %13) #16
  call void @errsave_finish(ptr noundef %15, ptr noundef nonnull @.str.3, i32 noundef 175, ptr noundef nonnull @__func__.date_in) #16
  br label %61

58:                                               ; preds = %.thread51
  %59 = add nsw i32 %52, -2451545
  %60 = sext i32 %59 to i64
  br label %61

61:                                               ; preds = %22, %53, %55, %44, %46, %58, %26, %25, %.thread
  %.0 = phi i64 [ 0, %.thread ], [ 0, %26 ], [ -2147483648, %25 ], [ %60, %58 ], [ 0, %46 ], [ 0, %44 ], [ 0, %55 ], [ 0, %53 ], [ 2147483647, %22 ]
  call void @llvm.lifetime.end.p0(i64 16, ptr nonnull %10) #16
  call void @llvm.lifetime.end.p0(i64 129, ptr nonnull %9) #16
  call void @llvm.lifetime.end.p0(i64 100, ptr nonnull %8) #16
  call void @llvm.lifetime.end.p0(i64 200, ptr nonnull %7) #16
  call void @llvm.lifetime.end.p0(i64 4, ptr nonnull %6) #16
  call void @llvm.lifetime.end.p0(i64 4, ptr nonnull %5) #16
  call void @llvm.lifetime.end.p0(i64 4, ptr nonnull %4) #16
  call void @llvm.lifetime.end.p0(i64 56, ptr nonnull %3) #16
  call void @llvm.lifetime.end.p0(i64 4, ptr nonnull %2) #16
  ret i64 %.0
}